target datalayout = "e-m:e-p270:32:32-p271:32:32-p272:64:64-i64:64-i128:128-f80:128-n8:16:32:64-S128"
target triple = "x86_64-pc-linux-gnu"

%class.FilterExpressionFrame = type <{ %class.AccordionFrame, ptr, i32, [4 x i8] }>
%class.AccordionFrame = type { %class.QFrame, i32, ptr }
%class.QFrame = type { %class.QWidget }
%class.QWidget = type { %class.QObject, %class.QPaintDevice.base, ptr }
%class.QObject = type { ptr, %class.QScopedPointer }
%class.QScopedPointer = type { ptr }
%class.QPaintDevice.base = type <{ ptr, i16 }>
%class.QFlags.16 = type { i32 }
%class.Ui_FilterExpressionFrame = type { ptr, ptr, ptr, ptr, ptr, ptr, ptr, ptr, ptr, ptr, ptr, ptr, ptr, ptr, ptr, ptr }
%class.QRect = type { i32, i32, i32, i32 }
%class.QWidgetData = type { i64, i32, %class.QFlags.16, i32, %class.QRect, [4 x i8], %class.QPalette, %class.QFont, %class.QRect }
%class.QPalette = type <{ ptr, i32, [4 x i8] }>
%class.QFont = type <{ %class.QExplicitlySharedDataPointer, i32, [4 x i8] }>
%class.QExplicitlySharedDataPointer = type { ptr }

; Function Attrs: inlinehint mustprogress null_pointer_is_valid sspstrong uwtable
define linkonce_odr noundef zeroext i1 @_ZNK7QWidget13testAttributeEN2Qt15WidgetAttributeE(ptr noundef align 8 dereferenceable_or_null(40) %0, i32 noundef %1) #7 comdat align 2 {
  %3 = alloca i1, align 1
  %4 = alloca ptr, align 8
  %5 = alloca i32, align 4
  store ptr %0, ptr %4, align 8
  store i32 %1, ptr %5, align 4
  %6 = load ptr, ptr %4, align 8
  %7 = load i32, ptr %5, align 4
  %8 = icmp slt i32 %7, 32
  br i1 %8, label %9, label %18

9:                                                ; preds = %2
  %10 = getelementptr inbounds nuw %class.QWidget, ptr %6, i32 0, i32 2
  %11 = load ptr, ptr %10, align 8
  %12 = getelementptr inbounds nuw %class.QWidgetData, ptr %11, i32 0, i32 1
  %13 = load i32, ptr %12, align 8
  %14 = load i32, ptr %5, align 4
  %15 = shl i32 1, %14
  %16 = and i32 %13, %15
  %17 = icmp ne i32 %16, 0
  store i1 %17, ptr %3, align 1
  br label %21

18:                                               ; preds = %2
  %19 = load i32, ptr %5, align 4
  %20 = call noundef zeroext i1 @_ZNK7QWidget20testAttribute_helperEN2Qt15WidgetAttributeE(ptr noundef align 8 dereferenceable_or_null(40) %6, i32 noundef %19)
  store i1 %20, ptr %3, align 1
  br label %21

21:                                               ; preds = %18, %9
  %22 = load i1, ptr %3, align 1
  ret i1 %22
}

; Function Attrs: mustprogress null_pointer_is_valid sspstrong uwtable
define void @_ZN21FilterExpressionFrame21on_buttonBox_rejectedEv(ptr noundef align 8 dereferenceable_or_null(68) %0) #0 align 2 {
  %2 = alloca ptr, align 8
  store ptr %0, ptr %2, align 8
  %3 = load ptr, ptr %2, align 8
  %4 = getelementptr inbounds nuw %class.FilterExpressionFrame, ptr %3, i32 0, i32 1
  %5 = load ptr, ptr %4, align 8
  %6 = getelementptr inbounds nuw %class.Ui_FilterExpressionFrame, ptr %5, i32 0, i32 8
  %7 = load ptr, ptr %6, align 8
  call void @_ZN9QLineEdit5clearEv(ptr noundef align 8 dereferenceable_or_null(40) %7)
  %8 = getelementptr inbounds nuw %class.FilterExpressionFrame, ptr %3, i32 0, i32 1
  %9 = load ptr, ptr %8, align 8
  %10 = getelementptr inbounds nuw %class.Ui_FilterExpressionFrame, ptr %9, i32 0, i32 11
  %11 = load ptr, ptr %10, align 8
  call void @_ZN9QLineEdit5clearEv(ptr noundef align 8 dereferenceable_or_null(40) %11)
  %12 = getelementptr inbounds nuw %class.FilterExpressionFrame, ptr %3, i32 0, i32 1
  %13 = load ptr, ptr %12, align 8
  %14 = getelementptr inbounds nuw %class.Ui_FilterExpressionFrame, ptr %13, i32 0, i32 14
  %15 = load ptr, ptr %14, align 8
  call void @_ZN9QLineEdit5clearEv(ptr noundef align 8 dereferenceable_or_null(40) %15)
  %16 = getelementptr inbounds nuw %class.FilterExpressionFrame, ptr %3, i32 0, i32 2
  store i32 -1, ptr %16, align 8
  call void @_ZN14AccordionFrame12animatedHideEv(ptr noundef align 8 dereferenceable_or_null(56) %3)
  ret void
}

; Function Attrs: inlinehint mustprogress null_pointer_is_valid sspstrong uwtable
define linkonce_odr noundef zeroext i1 @_ZNK7QWidget9isVisibleEv(ptr noundef align 8 dereferenceable_or_null(40) %0) #7 comdat align 2 {
  %2 = alloca ptr, align 8
  store ptr %0, ptr %2, align 8
  %3 = load ptr, ptr %2, align 8
  %4 = call noundef zeroext i1 @_ZNK7QWidget13testAttributeEN2Qt15WidgetAttributeE(ptr noundef align 8 dereferenceable_or_null(40) %3, i32 noundef 15)
  ret i1 %4
}

; Function Attrs: mustprogress null_pointer_is_valid sspstrong uwtable
define void @_ZN21FilterExpressionFrame13addExpressionE7QString(ptr noundef align 8 dereferenceable_or_null(68) %0, ptr noundef %1) #0 align 2 {
  %3 = alloca ptr, align 8
  %4 = alloca ptr, align 8
  store ptr %0, ptr %3, align 8
  store ptr %1, ptr %4, align 8
  %5 = load ptr, ptr %3, align 8
  %6 = call noundef zeroext i1 @_ZNK7QWidget9isVisibleEv(ptr noundef align 8 dereferenceable_or_null(40) %5)
  br i1 %6, label %7, label %8

7:                                                ; preds = %2
  call void @_ZN21FilterExpressionFrame21on_buttonBox_rejectedEv(ptr noundef align 8 dereferenceable_or_null(68) %5)
  br label %16

8:                                                ; preds = %2
  %9 = getelementptr inbounds nuw %class.FilterExpressionFrame, ptr %5, i32 0, i32 2
  store i32 -1, ptr %9, align 8
  %10 = getelementptr inbounds nuw %class.FilterExpressionFrame, ptr %5, i32 0, i32 1
  %11 = load ptr, ptr %10, align 8
  %12 = getelementptr inbounds nuw %class.Ui_FilterExpressionFrame, ptr %11, i32 0, i32 11
  %13 = load ptr, ptr %12, align 8
  call void @_ZN9QLineEdit7setTextERK7QString(ptr noundef align 8 dereferenceable_or_null(40) %13, ptr noundef align 8 dereferenceable(24) %1)
  %14 = call noundef zeroext i1 @_ZNK7QWidget9isVisibleEv(ptr noundef align 8 dereferenceable_or_null(40) %5)
  br i1 %14, label %16, label %15

15:                                               ; preds = %8
  call void @_ZN14AccordionFrame12animatedShowEv(ptr noundef align 8 dereferenceable_or_null(56) %5)
  br label %16

16:                                               ; preds = %7, %15, %8
  ret void
}