; Function Attrs: mustprogress null_pointer_is_valid sspstrong uwtable
define void @_ZN21FilterExpressionFrame13addExpressionE7QString(ptr noundef align 8 dereferenceable_or_null(68) initializes((64, 68)) %0, ptr noundef %1) local_unnamed_addr #0 align 2 {
  %3 = getelementptr inbounds nuw i8, ptr %0, i64 32
  %4 = load ptr, ptr %3, align 8
  %5 = getelementptr inbounds nuw i8, ptr %4, i64 8
  %6 = load i32, ptr %5, align 8
  %7 = and i32 %6, 32768
  %.not = icmp eq i32 %7, 0
  br i1 %.not, label %20, label %8

8:                                                ; preds = %2
  %9 = getelementptr inbounds nuw i8, ptr %0, i64 56
  %10 = load ptr, ptr %9, align 8
  %11 = getelementptr inbounds nuw i8, ptr %10, i64 64
  %12 = load ptr, ptr %11, align 8
  tail call void @_ZN9QLineEdit5clearEv(ptr noundef align 8 dereferenceable_or_null(40) %12)
  %13 = load ptr, ptr %9, align 8
  %14 = getelementptr inbounds nuw i8, ptr %13, i64 88
  %15 = load ptr, ptr %14, align 8
  tail call void @_ZN9QLineEdit5clearEv(ptr noundef align 8 dereferenceable_or_null(40) %15)
  %16 = load ptr, ptr %9, align 8
  %17 = getelementptr inbounds nuw i8, ptr %16, i64 112
  %18 = load ptr, ptr %17, align 8
  tail call void @_ZN9QLineEdit5clearEv(ptr noundef align 8 dereferenceable_or_null(40) %18)
  %19 = getelementptr inbounds nuw i8, ptr %0, i64 64
  store i32 -1, ptr %19, align 8
  tail call void @_ZN14AccordionFrame12animatedHideEv(ptr noundef align 8 dereferenceable_or_null(68) %0)
  br label %31

20:                                               ; preds = %2
  %21 = getelementptr inbounds nuw i8, ptr %0, i64 64
  store i32 -1, ptr %21, align 8
  %22 = getelementptr inbounds nuw i8, ptr %0, i64 56
  %23 = load ptr, ptr %22, align 8
  %24 = getelementptr inbounds nuw i8, ptr %23, i64 88
  %25 = load ptr, ptr %24, align 8
  tail call void @_ZN9QLineEdit7setTextERK7QString(ptr noundef align 8 dereferenceable_or_null(40) %25, ptr noundef align 8 dereferenceable(24) %1)
  %26 = load ptr, ptr %3, align 8
  %27 = getelementptr inbounds nuw i8, ptr %26, i64 8
  %28 = load i32, ptr %27, align 8
  %29 = and i32 %28, 32768
  %.not1 = icmp eq i32 %29, 0
  br i1 %.not1, label %30, label %31

30:                                               ; preds = %20
  tail call void @_ZN14AccordionFrame12animatedShowEv(ptr noundef align 8 dereferenceable_or_null(56) %0)
  br label %31

31:                                               ; preds = %30, %20, %8
  ret void
}